{
   <insert_a_suppression_name_here>
   Memcheck:Leak
   fun:malloc
   fun:malloc
   fun:_Znwm
   fun:_ZN4dyld37registerImageStateSingleChangeHandlerE17dyld_image_statesPFPKcS0_jPK15dyld_image_infoE
   fun:dyld_register_image_state_change_handler
   fun:libSystem_initializer
   fun:_ZN16ImageLoaderMachO18doModInitFunctionsERKN11ImageLoader11LinkContextE
   fun:_ZN16ImageLoaderMachO16doInitializationERKN11ImageLoader11LinkContextE
   fun:_ZN11ImageLoader23recursiveInitializationERKNS_11LinkContextEjRNS_21InitializerTimingListE
   fun:_ZN11ImageLoader23recursiveInitializationERKNS_11LinkContextEjRNS_21InitializerTimingListE
   fun:_ZN11ImageLoader15runInitializersERKNS_11LinkContextERNS_21InitializerTimingListE
   fun:_ZN4dyld24initializeMainExecutableEv
}
{
   <insert_a_suppression_name_here>
   Memcheck:Leak
   fun:malloc_zone_malloc
   fun:_strdup_internal
   fun:__sel_registerName
   fun:map_images_nolock
   fun:map_images
   fun:_ZN4dyldL18notifyBatchPartialE17dyld_image_statesbPFPKcS0_jPK15dyld_image_infoE
   fun:_ZN4dyld36registerImageStateBatchChangeHandlerE17dyld_image_statesPFPKcS0_jPK15dyld_image_infoE
   fun:dyld_register_image_state_change_handler
   fun:_objc_init
   fun:libSystem_initializer
   fun:_ZN16ImageLoaderMachO18doModInitFunctionsERKN11ImageLoader11LinkContextE
   fun:_ZN16ImageLoaderMachO16doInitializationERKN11ImageLoader11LinkContextE
}
{
   <insert_a_suppression_name_here>
   Memcheck:Leak
   fun:malloc
   fun:malloc
   fun:_Znwm
   fun:_ZNSt3__16vectorIPFPKc17dyld_image_statesjPK15dyld_image_infoENS_9allocatorIS8_EEE6insertENS_11__wrap_iterIPKS8_EERSD_
   fun:_ZN4dyld37registerImageStateSingleChangeHandlerE17dyld_image_statesPFPKcS0_jPK15dyld_image_infoE
   fun:dyld_register_image_state_change_handler
   fun:map_images_nolock
   fun:map_images
   fun:_ZN4dyldL18notifyBatchPartialE17dyld_image_statesbPFPKcS0_jPK15dyld_image_infoE
   fun:_ZN4dyld36registerImageStateBatchChangeHandlerE17dyld_image_statesPFPKcS0_jPK15dyld_image_infoE
   fun:dyld_register_image_state_change_handler
   fun:_objc_init
}
{
   <insert_a_suppression_name_here>
   Memcheck:Leak
   fun:malloc_zone_malloc
   fun:_ZL17buildProtocolListP13category_listPK15protocol_list_tPS3_
   fun:_ZL12realizeClassP7class_t
   fun:_ZL12realizeClassP7class_t
   fun:_ZL12realizeClassP7class_t
   fun:_ZL12realizeClassP7class_t
   fun:_ZL12realizeClassP7class_t
   fun:_read_images
   fun:map_images_nolock
   fun:map_images
   fun:_ZN4dyldL18notifyBatchPartialE17dyld_image_statesbPFPKcS0_jPK15dyld_image_infoE
   fun:_ZN4dyld36registerImageStateBatchChangeHandlerE17dyld_image_statesPFPKcS0_jPK15dyld_image_infoE
}
{
   <insert_a_suppression_name_here>
   Memcheck:Leak
   fun:malloc_zone_malloc
   fun:_ZL17buildProtocolListP13category_listPK15protocol_list_tPS3_
   fun:_ZL12realizeClassP7class_t
   fun:_ZL12realizeClassP7class_t
   fun:_ZL12realizeClassP7class_t
   fun:_ZL12realizeClassP7class_t
   fun:_read_images
   fun:map_images_nolock
   fun:map_images
   fun:_ZN4dyldL18notifyBatchPartialE17dyld_image_statesbPFPKcS0_jPK15dyld_image_infoE
   fun:_ZN4dyld36registerImageStateBatchChangeHandlerE17dyld_image_statesPFPKcS0_jPK15dyld_image_infoE
   fun:dyld_register_image_state_change_handler
}
{
   <insert_a_suppression_name_here>
   Memcheck:Leak
   fun:malloc_zone_calloc
   fun:_ZL27_fetchInitializingClassLista
   fun:_class_initialize
   fun:_class_initialize
   fun:_class_initialize
   fun:_class_initialize
   fun:prepareForMethodLookup
   fun:lookUpMethod
   fun:objc_msgSend
   fun:_libxpc_initializer
   fun:libSystem_initializer
   fun:_ZN16ImageLoaderMachO18doModInitFunctionsERKN11ImageLoader11LinkContextE
}
{
   <insert_a_suppression_name_here>
   Memcheck:Leak
   fun:malloc_zone_malloc
   fun:recursive_mutex_init
   fun:_objc_init
   fun:libSystem_initializer
   fun:_ZN16ImageLoaderMachO18doModInitFunctionsERKN11ImageLoader11LinkContextE
   fun:_ZN16ImageLoaderMachO16doInitializationERKN11ImageLoader11LinkContextE
   fun:_ZN11ImageLoader23recursiveInitializationERKNS_11LinkContextEjRNS_21InitializerTimingListE
   fun:_ZN11ImageLoader23recursiveInitializationERKNS_11LinkContextEjRNS_21InitializerTimingListE
   fun:_ZN11ImageLoader15runInitializersERKNS_11LinkContextERNS_21InitializerTimingListE
   fun:_ZN4dyld24initializeMainExecutableEv
   fun:_ZN4dyld5_mainEPK12macho_headermiPPKcS5_S5_Pm
   fun:_ZN13dyldbootstrap5startEPK12macho_headeriPPKclS2_Pm
}
{
   <insert_a_suppression_name_here>
   Memcheck:Leak
   fun:malloc_zone_malloc
   fun:__objc_sel_set_create
   fun:__sel_registerName
   fun:sel_init
   fun:map_images_nolock
   fun:map_images
   fun:_ZN4dyldL18notifyBatchPartialE17dyld_image_statesbPFPKcS0_jPK15dyld_image_infoE
   fun:_ZN4dyld36registerImageStateBatchChangeHandlerE17dyld_image_statesPFPKcS0_jPK15dyld_image_infoE
   fun:dyld_register_image_state_change_handler
   fun:_objc_init
   fun:libSystem_initializer
   fun:_ZN16ImageLoaderMachO18doModInitFunctionsERKN11ImageLoader11LinkContextE
}
{
   <insert_a_suppression_name_here>
   Memcheck:Leak
   fun:malloc_zone_malloc
   fun:NXCreateMapTableFromZone
   fun:_ZL18futureNamedClassesv
   fun:_read_images
   fun:map_images_nolock
   fun:map_images
   fun:_ZN4dyldL18notifyBatchPartialE17dyld_image_statesbPFPKcS0_jPK15dyld_image_infoE
   fun:_ZN4dyld36registerImageStateBatchChangeHandlerE17dyld_image_statesPFPKcS0_jPK15dyld_image_infoE
   fun:dyld_register_image_state_change_handler
   fun:_objc_init
   fun:libSystem_initializer
   fun:_ZN16ImageLoaderMachO18doModInitFunctionsERKN11ImageLoader11LinkContextE
}
{
   <insert_a_suppression_name_here>
   Memcheck:Leak
   fun:malloc_zone_malloc
   fun:NXCreateMapTableFromZone
   fun:_ZL15remappedClassesa
   fun:_ZL10remapClassP7class_t
   fun:_read_images
   fun:map_images_nolock
   fun:map_images
   fun:_ZN4dyldL18notifyBatchPartialE17dyld_image_statesbPFPKcS0_jPK15dyld_image_infoE
   fun:_ZN4dyld36registerImageStateBatchChangeHandlerE17dyld_image_statesPFPKcS0_jPK15dyld_image_infoE
   fun:dyld_register_image_state_change_handler
   fun:_objc_init
   fun:libSystem_initializer
}
{
   <insert_a_suppression_name_here>
   Memcheck:Leak
   fun:malloc_zone_malloc
   fun:NXCreateMapTableFromZone
   fun:_ZL9protocolsv
   fun:_read_images
   fun:map_images_nolock
   fun:map_images
   fun:_ZN4dyldL18notifyBatchPartialE17dyld_image_statesbPFPKcS0_jPK15dyld_image_infoE
   fun:_ZN4dyld36registerImageStateBatchChangeHandlerE17dyld_image_statesPFPKcS0_jPK15dyld_image_infoE
   fun:dyld_register_image_state_change_handler
   fun:_objc_init
   fun:libSystem_initializer
   fun:_ZN16ImageLoaderMachO18doModInitFunctionsERKN11ImageLoader11LinkContextE
}
{
   <insert_a_suppression_name_here>
   Memcheck:Leak
   fun:malloc_zone_malloc
   fun:NXCreateMapTableFromZone
   fun:_ZL20unattachedCategoriesv
   fun:_ZL12realizeClassP7class_t
   fun:_ZL12realizeClassP7class_t
   fun:_ZL12realizeClassP7class_t
   fun:_ZL12realizeClassP7class_t
   fun:_ZL12realizeClassP7class_t
   fun:_read_images
   fun:map_images_nolock
   fun:map_images
   fun:_ZN4dyldL18notifyBatchPartialE17dyld_image_statesbPFPKcS0_jPK15dyld_image_infoE
}
{
   <insert_a_suppression_name_here>
   Memcheck:Leak
   fun:malloc_zone_malloc
   fun:NXCreateHashTableFromZone
   fun:NXCreateHashTable
   fun:NXCreateMapTableFromZone
   fun:_read_images
   fun:map_images_nolock
   fun:map_images
   fun:_ZN4dyldL18notifyBatchPartialE17dyld_image_statesbPFPKcS0_jPK15dyld_image_infoE
   fun:_ZN4dyld36registerImageStateBatchChangeHandlerE17dyld_image_statesPFPKcS0_jPK15dyld_image_infoE
   fun:dyld_register_image_state_change_handler
   fun:_objc_init
   fun:libSystem_initializer
}
{
   <insert_a_suppression_name_here>
   Memcheck:Leak
   fun:malloc_zone_malloc
   fun:NXCreateHashTableFromZone
   fun:NXCreateHashTable
   fun:NXCreateMapTableFromZone
   fun:_read_images
   fun:map_images_nolock
   fun:map_images
   fun:_ZN4dyldL18notifyBatchPartialE17dyld_image_statesbPFPKcS0_jPK15dyld_image_infoE
   fun:_ZN4dyld36registerImageStateBatchChangeHandlerE17dyld_image_statesPFPKcS0_jPK15dyld_image_infoE
   fun:dyld_register_image_state_change_handler
   fun:_objc_init
   fun:libSystem_initializer
}
{
   <insert_a_suppression_name_here>
   Memcheck:Leak
   fun:malloc
   fun:NXCreateHashTableFromZone
   fun:NXCreateHashTable
   fun:NXCreateMapTableFromZone
   fun:_read_images
   fun:map_images_nolock
   fun:map_images
   fun:_ZN4dyldL18notifyBatchPartialE17dyld_image_statesbPFPKcS0_jPK15dyld_image_infoE
   fun:_ZN4dyld36registerImageStateBatchChangeHandlerE17dyld_image_statesPFPKcS0_jPK15dyld_image_infoE
   fun:dyld_register_image_state_change_handler
   fun:_objc_init
   fun:libSystem_initializer
}
{
   <insert_a_suppression_name_here>
   Memcheck:Leak
   fun:malloc
   fun:NXCreateMapTableFromZone
   fun:_read_images
   fun:map_images_nolock
   fun:map_images
   fun:_ZN4dyldL18notifyBatchPartialE17dyld_image_statesbPFPKcS0_jPK15dyld_image_infoE
   fun:_ZN4dyld36registerImageStateBatchChangeHandlerE17dyld_image_statesPFPKcS0_jPK15dyld_image_infoE
   fun:dyld_register_image_state_change_handler
   fun:_objc_init
   fun:libSystem_initializer
   fun:_ZN16ImageLoaderMachO18doModInitFunctionsERKN11ImageLoader11LinkContextE
   fun:_ZN16ImageLoaderMachO16doInitializationERKN11ImageLoader11LinkContextE
}
{
   <insert_a_suppression_name_here>
   Memcheck:Leak
   fun:malloc_zone_malloc
   fun:NXCreateHashTableFromZone
   fun:_read_images
   fun:map_images_nolock
   fun:map_images
   fun:_ZN4dyldL18notifyBatchPartialE17dyld_image_statesbPFPKcS0_jPK15dyld_image_infoE
   fun:_ZN4dyld36registerImageStateBatchChangeHandlerE17dyld_image_statesPFPKcS0_jPK15dyld_image_infoE
   fun:dyld_register_image_state_change_handler
   fun:_objc_init
   fun:libSystem_initializer
   fun:_ZN16ImageLoaderMachO18doModInitFunctionsERKN11ImageLoader11LinkContextE
   fun:_ZN16ImageLoaderMachO16doInitializationERKN11ImageLoader11LinkContextE
}
{
   <insert_a_suppression_name_here>
   Memcheck:Leak
   fun:malloc
   fun:NXCreateHashTableFromZone
   fun:_read_images
   fun:map_images_nolock
   fun:map_images
   fun:_ZN4dyldL18notifyBatchPartialE17dyld_image_statesbPFPKcS0_jPK15dyld_image_infoE
   fun:_ZN4dyld36registerImageStateBatchChangeHandlerE17dyld_image_statesPFPKcS0_jPK15dyld_image_infoE
   fun:dyld_register_image_state_change_handler
   fun:_objc_init
   fun:libSystem_initializer
   fun:_ZN16ImageLoaderMachO18doModInitFunctionsERKN11ImageLoader11LinkContextE
   fun:_ZN16ImageLoaderMachO16doInitializationERKN11ImageLoader11LinkContextE
}
{
   <insert_a_suppression_name_here>
   Memcheck:Leak
   fun:malloc_zone_malloc
   fun:NXCreateHashTableFromZone
   fun:_read_images
   fun:map_images_nolock
   fun:map_images
   fun:_ZN4dyldL18notifyBatchPartialE17dyld_image_statesbPFPKcS0_jPK15dyld_image_infoE
   fun:_ZN4dyld36registerImageStateBatchChangeHandlerE17dyld_image_statesPFPKcS0_jPK15dyld_image_infoE
   fun:dyld_register_image_state_change_handler
   fun:_objc_init
   fun:libSystem_initializer
   fun:_ZN16ImageLoaderMachO18doModInitFunctionsERKN11ImageLoader11LinkContextE
   fun:_ZN16ImageLoaderMachO16doInitializationERKN11ImageLoader11LinkContextE
}
{
   <insert_a_suppression_name_here>
   Memcheck:Leak
   fun:malloc
   fun:NXCreateMapTableFromZone
   fun:_ZL15remappedClassesa
   fun:_ZL10remapClassP7class_t
   fun:_read_images
   fun:map_images_nolock
   fun:map_images
   fun:_ZN4dyldL18notifyBatchPartialE17dyld_image_statesbPFPKcS0_jPK15dyld_image_infoE
   fun:_ZN4dyld36registerImageStateBatchChangeHandlerE17dyld_image_statesPFPKcS0_jPK15dyld_image_infoE
   fun:dyld_register_image_state_change_handler
   fun:_objc_init
   fun:libSystem_initializer
}
{
   <insert_a_suppression_name_here>
   Memcheck:Leak
   fun:malloc
   fun:malloc
   fun:_Znwm
   fun:_ZNSt3__16vectorIPFPKc17dyld_image_statesjPK15dyld_image_infoENS_9allocatorIS8_EEE6insertENS_11__wrap_iterIPKS8_EERSD_
   fun:_ZN4dyld36registerImageStateBatchChangeHandlerE17dyld_image_statesPFPKcS0_jPK15dyld_image_infoE
   fun:dyld_register_image_state_change_handler
   fun:_libxpc_initializer
   fun:libSystem_initializer
   fun:_ZN16ImageLoaderMachO18doModInitFunctionsERKN11ImageLoader11LinkContextE
   fun:_ZN16ImageLoaderMachO16doInitializationERKN11ImageLoader11LinkContextE
   fun:_ZN11ImageLoader23recursiveInitializationERKNS_11LinkContextEjRNS_21InitializerTimingListE
   fun:_ZN11ImageLoader23recursiveInitializationERKNS_11LinkContextEjRNS_21InitializerTimingListE
}
{
   <insert_a_suppression_name_here>
   Memcheck:Leak
   fun:malloc_zone_malloc
   fun:_ZL17buildProtocolListP13category_listPK15protocol_list_tPS3_
   fun:_ZL12realizeClassP7class_t
   fun:_ZL12realizeClassP7class_t
   fun:_ZL12realizeClassP7class_t
   fun:_read_images
   fun:map_images_nolock
   fun:map_images
   fun:_ZN4dyldL18notifyBatchPartialE17dyld_image_statesbPFPKcS0_jPK15dyld_image_infoE
   fun:_ZN4dyld36registerImageStateBatchChangeHandlerE17dyld_image_statesPFPKcS0_jPK15dyld_image_infoE
   fun:dyld_register_image_state_change_handler
   fun:_objc_init
}
{
   <insert_a_suppression_name_here>
   Memcheck:Leak
   fun:malloc_zone_malloc
   fun:_ZL17buildProtocolListP13category_listPK15protocol_list_tPS3_
   fun:_ZL12realizeClassP7class_t
   fun:_ZL12realizeClassP7class_t
   fun:_read_images
   fun:map_images_nolock
   fun:map_images
   fun:_ZN4dyldL18notifyBatchPartialE17dyld_image_statesbPFPKcS0_jPK15dyld_image_infoE
   fun:_ZN4dyld36registerImageStateBatchChangeHandlerE17dyld_image_statesPFPKcS0_jPK15dyld_image_infoE
   fun:dyld_register_image_state_change_handler
   fun:_objc_init
   fun:libSystem_initializer
}
{
   <insert_a_suppression_name_here>
   Memcheck:Leak
   fun:malloc_zone_calloc
   fun:NXHashInsert
   fun:NXCreateHashTableFromZone
   fun:_read_images
   fun:map_images_nolock
   fun:map_images
   fun:_ZN4dyldL18notifyBatchPartialE17dyld_image_statesbPFPKcS0_jPK15dyld_image_infoE
   fun:_ZN4dyld36registerImageStateBatchChangeHandlerE17dyld_image_statesPFPKcS0_jPK15dyld_image_infoE
   fun:dyld_register_image_state_change_handler
   fun:_objc_init
   fun:libSystem_initializer
   fun:_ZN16ImageLoaderMachO18doModInitFunctionsERKN11ImageLoader11LinkContextE
}
{
   <insert_a_suppression_name_here>
   Memcheck:Leak
   fun:malloc_zone_calloc
   fun:NXHashInsert
   fun:_ZL12realizeClassP7class_t
   fun:_read_images
   fun:map_images_nolock
   fun:map_images
   fun:_ZN4dyldL18notifyBatchPartialE17dyld_image_statesbPFPKcS0_jPK15dyld_image_infoE
   fun:_ZN4dyld36registerImageStateBatchChangeHandlerE17dyld_image_statesPFPKcS0_jPK15dyld_image_infoE
   fun:dyld_register_image_state_change_handler
   fun:_objc_init
   fun:libSystem_initializer
   fun:_ZN16ImageLoaderMachO18doModInitFunctionsERKN11ImageLoader11LinkContextE
}
{
   <insert_a_suppression_name_here>
   Memcheck:Leak
   fun:malloc_zone_calloc
   fun:_ZL27_fetchInitializingClassLista
   fun:_class_initialize
   fun:_class_initialize
   fun:_class_initialize
   fun:_class_initialize
   fun:prepareForMethodLookup
   fun:lookUpMethod
   fun:objc_msgSend
   fun:_libxpc_initializer
   fun:libSystem_initializer
   fun:_ZN16ImageLoaderMachO18doModInitFunctionsERKN11ImageLoader11LinkContextE
}
{
   <insert_a_suppression_name_here>
   Memcheck:Leak
   fun:malloc_zone_calloc
   fun:_NXHashRehashToCapacity
   fun:NXHashInsert
   fun:NXCreateHashTableFromZone
   fun:NXCreateHashTable
   fun:NXCreateMapTableFromZone
   fun:_read_images
   fun:map_images_nolock
   fun:map_images
   fun:_ZN4dyldL18notifyBatchPartialE17dyld_image_statesbPFPKcS0_jPK15dyld_image_infoE
   fun:_ZN4dyld36registerImageStateBatchChangeHandlerE17dyld_image_statesPFPKcS0_jPK15dyld_image_infoE
   fun:dyld_register_image_state_change_handler
}
{
   <insert_a_suppression_name_here>
   Memcheck:Leak
   fun:malloc_zone_calloc
   fun:_NXHashRehashToCapacity
   fun:NXHashInsert
   fun:NXCreateMapTableFromZone
   fun:_ZL15remappedClassesa
   fun:_ZL10remapClassP7class_t
   fun:_read_images
   fun:map_images_nolock
   fun:map_images
   fun:_ZN4dyldL18notifyBatchPartialE17dyld_image_statesbPFPKcS0_jPK15dyld_image_infoE
   fun:_ZN4dyld36registerImageStateBatchChangeHandlerE17dyld_image_statesPFPKcS0_jPK15dyld_image_infoE
   fun:dyld_register_image_state_change_handler
}
{
   <insert_a_suppression_name_here>
   Memcheck:Leak
   fun:malloc_zone_calloc
   fun:_ZL13_cache_mallocm
   fun:_cache_fill
   fun:log_and_fill_cache
   fun:lookUpMethod
   fun:objc_msgSend
   fun:_libxpc_initializer
   fun:libSystem_initializer
   fun:_ZN16ImageLoaderMachO18doModInitFunctionsERKN11ImageLoader11LinkContextE
   fun:_ZN16ImageLoaderMachO16doInitializationERKN11ImageLoader11LinkContextE
   fun:_ZN11ImageLoader23recursiveInitializationERKNS_11LinkContextEjRNS_21InitializerTimingListE
   fun:_ZN11ImageLoader23recursiveInitializationERKNS_11LinkContextEjRNS_21InitializerTimingListE
}
{
   <insert_a_suppression_name_here>
   Memcheck:Leak
   fun:malloc_zone_calloc
   fun:_ZL13_cache_mallocm
   fun:_cache_fill
   fun:log_and_fill_cache
   fun:lookUpMethod
   fun:objc_msgSendSuper2
   fun:-[OS_xpc_object _xref_dispose]
   fun:_libxpc_initializer
   fun:libSystem_initializer
   fun:_ZN16ImageLoaderMachO18doModInitFunctionsERKN11ImageLoader11LinkContextE
   fun:_ZN16ImageLoaderMachO16doInitializationERKN11ImageLoader11LinkContextE
   fun:_ZN11ImageLoader23recursiveInitializationERKNS_11LinkContextEjRNS_21InitializerTimingListE
}
{
   <insert_a_suppression_name_here>
   Memcheck:Leak
   fun:malloc_zone_calloc
   fun:_ZL12realizeClassP7class_t
   fun:_ZL12realizeClassP7class_t
   fun:_ZL12realizeClassP7class_t
   fun:_read_images
   fun:map_images_nolock
   fun:map_images
   fun:_ZN4dyldL18notifyBatchPartialE17dyld_image_statesbPFPKcS0_jPK15dyld_image_infoE
   fun:_ZN4dyld36registerImageStateBatchChangeHandlerE17dyld_image_statesPFPKcS0_jPK15dyld_image_infoE
   fun:dyld_register_image_state_change_handler
   fun:_objc_init
   fun:libSystem_initializer
}
{
   <insert_a_suppression_name_here>
   Memcheck:Leak
   fun:malloc_zone_calloc
   fun:_ZL12realizeClassP7class_t
   fun:_ZL12realizeClassP7class_t
   fun:_ZL12realizeClassP7class_t
   fun:_ZL12realizeClassP7class_t
   fun:_read_images
   fun:map_images_nolock
   fun:map_images
   fun:_ZN4dyldL18notifyBatchPartialE17dyld_image_statesbPFPKcS0_jPK15dyld_image_infoE
   fun:_ZN4dyld36registerImageStateBatchChangeHandlerE17dyld_image_statesPFPKcS0_jPK15dyld_image_infoE
   fun:dyld_register_image_state_change_handler
   fun:_objc_init
}
{
   <insert_a_suppression_name_here>
   Memcheck:Leak
   fun:malloc_zone_calloc
   fun:_ZL12realizeClassP7class_t
   fun:_ZL12realizeClassP7class_t
   fun:_ZL12realizeClassP7class_t
   fun:_ZL12realizeClassP7class_t
   fun:_ZL12realizeClassP7class_t
   fun:_read_images
   fun:map_images_nolock
   fun:map_images
   fun:_ZN4dyldL18notifyBatchPartialE17dyld_image_statesbPFPKcS0_jPK15dyld_image_infoE
   fun:_ZN4dyld36registerImageStateBatchChangeHandlerE17dyld_image_statesPFPKcS0_jPK15dyld_image_infoE
   fun:dyld_register_image_state_change_handler
}
{
   <insert_a_suppression_name_here>
   Memcheck:Leak
   fun:malloc_zone_calloc
   fun:_ZL12realizeClassP7class_t
   fun:_ZL12realizeClassP7class_t
   fun:_ZL12realizeClassP7class_t
   fun:_ZL12realizeClassP7class_t
   fun:_read_images
   fun:map_images_nolock
   fun:map_images
   fun:_ZN4dyldL18notifyBatchPartialE17dyld_image_statesbPFPKcS0_jPK15dyld_image_infoE
   fun:_ZN4dyld36registerImageStateBatchChangeHandlerE17dyld_image_statesPFPKcS0_jPK15dyld_image_infoE
   fun:dyld_register_image_state_change_handler
   fun:_objc_init
}
{
   <insert_a_suppression_name_here>
   Memcheck:Leak
   fun:malloc_zone_calloc
   fun:NXHashInsert
   fun:_NXHashRehashToCapacity
   fun:NXHashInsert
   fun:_ZL12realizeClassP7class_t
   fun:_read_images
   fun:map_images_nolock
   fun:map_images
   fun:_ZN4dyldL18notifyBatchPartialE17dyld_image_statesbPFPKcS0_jPK15dyld_image_infoE
   fun:_ZN4dyld36registerImageStateBatchChangeHandlerE17dyld_image_statesPFPKcS0_jPK15dyld_image_infoE
   fun:dyld_register_image_state_change_handler
   fun:_objc_init
}
{
   <insert_a_suppression_name_here>
   Memcheck:Leak
   fun:malloc_zone_malloc
   fun:recursive_mutex_init
   fun:_objc_init
   fun:libSystem_initializer
   fun:_ZN16ImageLoaderMachO18doModInitFunctionsERKN11ImageLoader11LinkContextE
   fun:_ZN16ImageLoaderMachO16doInitializationERKN11ImageLoader11LinkContextE
   fun:_ZN11ImageLoader23recursiveInitializationERKNS_11LinkContextEjRNS_21InitializerTimingListE
   fun:_ZN11ImageLoader23recursiveInitializationERKNS_11LinkContextEjRNS_21InitializerTimingListE
   fun:_ZN11ImageLoader15runInitializersERKNS_11LinkContextERNS_21InitializerTimingListE
   fun:_ZN4dyld24initializeMainExecutableEv
   fun:_ZN4dyld5_mainEPK12macho_headermiPPKcS5_S5_Pm
   fun:_ZN13dyldbootstrap5startEPK12macho_headeriPPKclS2_Pm
}
{
   <insert_a_suppression_name_here>
   Memcheck:Leak
   fun:malloc_zone_calloc
   fun:_objc_fetch_pthread_data
   fun:_ZL27_fetchInitializingClassLista
   fun:_class_initialize
   fun:_class_initialize
   fun:_class_initialize
   fun:_class_initialize
   fun:prepareForMethodLookup
   fun:lookUpMethod
   fun:objc_msgSend
   fun:_libxpc_initializer
   fun:libSystem_initializer
}
{
   <insert_a_suppression_name_here>
   Memcheck:Leak
   fun:malloc_zone_calloc
   fun:map_images_nolock
   fun:map_images
   fun:_ZN4dyldL18notifyBatchPartialE17dyld_image_statesbPFPKcS0_jPK15dyld_image_infoE
   fun:_ZN4dyld36registerImageStateBatchChangeHandlerE17dyld_image_statesPFPKcS0_jPK15dyld_image_infoE
   fun:dyld_register_image_state_change_handler
   fun:_objc_init
   fun:libSystem_initializer
   fun:_ZN16ImageLoaderMachO18doModInitFunctionsERKN11ImageLoader11LinkContextE
   fun:_ZN16ImageLoaderMachO16doInitializationERKN11ImageLoader11LinkContextE
   fun:_ZN11ImageLoader23recursiveInitializationERKNS_11LinkContextEjRNS_21InitializerTimingListE
   fun:_ZN11ImageLoader23recursiveInitializationERKNS_11LinkContextEjRNS_21InitializerTimingListE
}
{
   <insert_a_suppression_name_here>
   Memcheck:Leak
   fun:malloc
   fun:get_or_create_key_element
   fun:_keymgr_get_and_lock_processwide_ptr_2
   fun:__keymgr_initializer
   fun:libSystem_initializer
   fun:_ZN16ImageLoaderMachO18doModInitFunctionsERKN11ImageLoader11LinkContextE
   fun:_ZN16ImageLoaderMachO16doInitializationERKN11ImageLoader11LinkContextE
   fun:_ZN11ImageLoader23recursiveInitializationERKNS_11LinkContextEjRNS_21InitializerTimingListE
   fun:_ZN11ImageLoader23recursiveInitializationERKNS_11LinkContextEjRNS_21InitializerTimingListE
   fun:_ZN11ImageLoader15runInitializersERKNS_11LinkContextERNS_21InitializerTimingListE
   fun:_ZN4dyld24initializeMainExecutableEv
   fun:_ZN4dyld5_mainEPK12macho_headermiPPKcS5_S5_Pm
}
{
   <insert_a_suppression_name_here>
   Memcheck:Leak
   fun:calloc
   fun:class_createInstance
   fun:_os_object_alloc
   fun:_xpc_base_create
   fun:_xpc_pipe_create
   fun:_xpc_domain_init_local
   fun:_libxpc_initializer
   fun:libSystem_initializer
   fun:_ZN16ImageLoaderMachO18doModInitFunctionsERKN11ImageLoader11LinkContextE
   fun:_ZN16ImageLoaderMachO16doInitializationERKN11ImageLoader11LinkContextE
   fun:_ZN11ImageLoader23recursiveInitializationERKNS_11LinkContextEjRNS_21InitializerTimingListE
   fun:_ZN11ImageLoader23recursiveInitializationERKNS_11LinkContextEjRNS_21InitializerTimingListE
}
{
   <insert_a_suppression_name_here>
   Memcheck:Leak
   fun:malloc_zone_calloc
   fun:NXHashInsert
   fun:_NXHashRehashToCapacity
   fun:NXHashInsert
   fun:_ZL12realizeClassP7class_t
   fun:_ZL12realizeClassP7class_t
   fun:_read_images
   fun:map_images_nolock
   fun:map_images
   fun:_ZN4dyldL18notifyBatchPartialE17dyld_image_statesbPFPKcS0_jPK15dyld_image_infoE
   fun:_ZN4dyld36registerImageStateBatchChangeHandlerE17dyld_image_statesPFPKcS0_jPK15dyld_image_infoE
   fun:dyld_register_image_state_change_handler
}
{
   <insert_a_suppression_name_here>
   Memcheck:Leak
   fun:malloc_zone_calloc
   fun:_ZL12realizeClassP7class_t
   fun:_ZL12realizeClassP7class_t
   fun:_read_images
   fun:map_images_nolock
   fun:map_images
   fun:_ZN4dyldL18notifyBatchPartialE17dyld_image_statesbPFPKcS0_jPK15dyld_image_infoE
   fun:_ZN4dyld36registerImageStateBatchChangeHandlerE17dyld_image_statesPFPKcS0_jPK15dyld_image_infoE
   fun:dyld_register_image_state_change_handler
   fun:_objc_init
   fun:libSystem_initializer
   fun:_ZN16ImageLoaderMachO18doModInitFunctionsERKN11ImageLoader11LinkContextE
}
{
   <insert_a_suppression_name_here>
   Memcheck:Leak
   fun:malloc_zone_calloc
   fun:_ZL12realizeClassP7class_t
   fun:_ZL12realizeClassP7class_t
   fun:_ZL12realizeClassP7class_t
   fun:_read_images
   fun:map_images_nolock
   fun:map_images
   fun:_ZN4dyldL18notifyBatchPartialE17dyld_image_statesbPFPKcS0_jPK15dyld_image_infoE
   fun:_ZN4dyld36registerImageStateBatchChangeHandlerE17dyld_image_statesPFPKcS0_jPK15dyld_image_infoE
   fun:dyld_register_image_state_change_handler
   fun:_objc_init
   fun:libSystem_initializer
}
{
   <insert_a_suppression_name_here>
   Memcheck:Leak
   fun:malloc_zone_calloc
   fun:map_images_nolock
   fun:map_images
   fun:_ZN4dyldL18notifyBatchPartialE17dyld_image_statesbPFPKcS0_jPK15dyld_image_infoE
   fun:_ZN4dyld36registerImageStateBatchChangeHandlerE17dyld_image_statesPFPKcS0_jPK15dyld_image_infoE
   fun:dyld_register_image_state_change_handler
   fun:_objc_init
   fun:libSystem_initializer
   fun:_ZN16ImageLoaderMachO18doModInitFunctionsERKN11ImageLoader11LinkContextE
   fun:_ZN16ImageLoaderMachO16doInitializationERKN11ImageLoader11LinkContextE
   fun:_ZN11ImageLoader23recursiveInitializationERKNS_11LinkContextEjRNS_21InitializerTimingListE
   fun:_ZN11ImageLoader23recursiveInitializationERKNS_11LinkContextEjRNS_21InitializerTimingListE
}
{
   <insert_a_suppression_name_here>
   Memcheck:Leak
   fun:malloc_zone_malloc
   fun:_strdup_internal
   fun:__sel_registerName
   fun:_ZL11initVtablesv
   fun:_read_images
   fun:map_images_nolock
   fun:map_images
   fun:_ZN4dyldL18notifyBatchPartialE17dyld_image_statesbPFPKcS0_jPK15dyld_image_infoE
   fun:_ZN4dyld36registerImageStateBatchChangeHandlerE17dyld_image_statesPFPKcS0_jPK15dyld_image_infoE
   fun:dyld_register_image_state_change_handler
   fun:_objc_init
   fun:libSystem_initializer
}
{
   <insert_a_suppression_name_here>
   Memcheck:Leak
   fun:malloc_zone_malloc
   fun:_ZL11initVtablesv
   fun:_read_images
   fun:map_images_nolock
   fun:map_images
   fun:_ZN4dyldL18notifyBatchPartialE17dyld_image_statesbPFPKcS0_jPK15dyld_image_infoE
   fun:_ZN4dyld36registerImageStateBatchChangeHandlerE17dyld_image_statesPFPKcS0_jPK15dyld_image_infoE
   fun:dyld_register_image_state_change_handler
   fun:_objc_init
   fun:libSystem_initializer
   fun:_ZN16ImageLoaderMachO18doModInitFunctionsERKN11ImageLoader11LinkContextE
   fun:_ZN16ImageLoaderMachO16doInitializationERKN11ImageLoader11LinkContextE
}
{
   <insert_a_suppression_name_here>
   Memcheck:Leak
   fun:malloc_zone_malloc
   fun:_ZL11initVtablesv
   fun:_read_images
   fun:map_images_nolock
   fun:map_images
   fun:_ZN4dyldL18notifyBatchPartialE17dyld_image_statesbPFPKcS0_jPK15dyld_image_infoE
   fun:_ZN4dyld36registerImageStateBatchChangeHandlerE17dyld_image_statesPFPKcS0_jPK15dyld_image_infoE
   fun:dyld_register_image_state_change_handler
   fun:_objc_init
   fun:libSystem_initializer
   fun:_ZN16ImageLoaderMachO18doModInitFunctionsERKN11ImageLoader11LinkContextE
   fun:_ZN16ImageLoaderMachO16doInitializationERKN11ImageLoader11LinkContextE
}
{
   <insert_a_suppression_name_here>
   Memcheck:Leak
   fun:calloc
   fun:class_createInstance
   fun:_os_object_alloc
   fun:_xpc_base_create
   fun:_xpc_domain_create
   fun:_libxpc_initializer
   fun:libSystem_initializer
   fun:_ZN16ImageLoaderMachO18doModInitFunctionsERKN11ImageLoader11LinkContextE
   fun:_ZN16ImageLoaderMachO16doInitializationERKN11ImageLoader11LinkContextE
   fun:_ZN11ImageLoader23recursiveInitializationERKNS_11LinkContextEjRNS_21InitializerTimingListE
   fun:_ZN11ImageLoader23recursiveInitializationERKNS_11LinkContextEjRNS_21InitializerTimingListE
   fun:_ZN11ImageLoader15runInitializersERKNS_11LinkContextERNS_21InitializerTimingListE
}
{
   <insert_a_suppression_name_here>
   Memcheck:Leak
   fun:malloc
   fun:_ZL12updateVtableP7class_ta
   fun:_class_setInitialized
   fun:_ZL19_finishInitializingP10objc_classS0_
   fun:_class_initialize
   fun:_class_initialize
   fun:_class_initialize
   fun:_class_initialize
   fun:prepareForMethodLookup
   fun:lookUpMethod
   fun:objc_msgSend
   fun:_libxpc_initializer
}
{
   <insert_a_suppression_name_here>
   Memcheck:Leak
   fun:malloc
   fun:_ZL12updateVtableP7class_ta
   fun:_class_setInitialized
   fun:_ZL19_finishInitializingP10objc_classS0_
   fun:_class_initialize
   fun:_class_initialize
   fun:_class_initialize
   fun:_class_initialize
   fun:prepareForMethodLookup
   fun:lookUpMethod
   fun:objc_msgSend
   fun:_libxpc_initializer
}
{
   <insert_a_suppression_name_here>
   Memcheck:Leak
   fun:malloc
   fun:_ZL12updateVtableP7class_ta
   fun:_class_setInitialized
   fun:_ZL19_finishInitializingP10objc_classS0_
   fun:_class_initialize
   fun:_class_initialize
   fun:_class_initialize
   fun:prepareForMethodLookup
   fun:lookUpMethod
   fun:objc_msgSend
   fun:_libxpc_initializer
   fun:libSystem_initializer
}
{
   <insert_a_suppression_name_here>
   Memcheck:Leak
   fun:malloc
   fun:_ZL12updateVtableP7class_ta
   fun:_class_setInitialized
   fun:_ZL19_finishInitializingP10objc_classS0_
   fun:_class_initialize
   fun:_class_initialize
   fun:prepareForMethodLookup
   fun:lookUpMethod
   fun:objc_msgSend
   fun:_libxpc_initializer
   fun:libSystem_initializer
   fun:_ZN16ImageLoaderMachO18doModInitFunctionsERKN11ImageLoader11LinkContextE
}
{
   <insert_a_suppression_name_here>
   Memcheck:Leak
   fun:calloc
   fun:class_createInstance
   fun:_os_object_alloc
   fun:dispatch_queue_create
   fun:_libxpc_initializer
   fun:libSystem_initializer
   fun:_ZN16ImageLoaderMachO18doModInitFunctionsERKN11ImageLoader11LinkContextE
   fun:_ZN16ImageLoaderMachO16doInitializationERKN11ImageLoader11LinkContextE
   fun:_ZN11ImageLoader23recursiveInitializationERKNS_11LinkContextEjRNS_21InitializerTimingListE
   fun:_ZN11ImageLoader23recursiveInitializationERKNS_11LinkContextEjRNS_21InitializerTimingListE
   fun:_ZN11ImageLoader15runInitializersERKNS_11LinkContextERNS_21InitializerTimingListE
   fun:_ZN4dyld24initializeMainExecutableEv
}
{
   <insert_a_suppression_name_here>
   Memcheck:Leak
   fun:malloc_zone_malloc
   fun:_memdup_internal
   fun:_ZL15fixupMethodListP13method_list_tbb
   fun:_ZL17attachMethodListsP7class_tPP13method_list_tiaaPa
   fun:_ZL12realizeClassP7class_t
   fun:_ZL12realizeClassP7class_t
   fun:_ZL12realizeClassP7class_t
   fun:_read_images
   fun:map_images_nolock
   fun:map_images
   fun:_ZN4dyldL18notifyBatchPartialE17dyld_image_statesbPFPKcS0_jPK15dyld_image_infoE
   fun:_ZN4dyld36registerImageStateBatchChangeHandlerE17dyld_image_statesPFPKcS0_jPK15dyld_image_infoE
}
{
   <insert_a_suppression_name_here>
   Memcheck:Leak
   fun:malloc
   fun:_xpc_malloc
   fun:_xpc_dictionary_insert
   fun:xpc_dictionary_set_string
   fun:_libxpc_initializer
   fun:libSystem_initializer
   fun:_ZN16ImageLoaderMachO18doModInitFunctionsERKN11ImageLoader11LinkContextE
   fun:_ZN16ImageLoaderMachO16doInitializationERKN11ImageLoader11LinkContextE
   fun:_ZN11ImageLoader23recursiveInitializationERKNS_11LinkContextEjRNS_21InitializerTimingListE
   fun:_ZN11ImageLoader23recursiveInitializationERKNS_11LinkContextEjRNS_21InitializerTimingListE
   fun:_ZN11ImageLoader15runInitializersERKNS_11LinkContextERNS_21InitializerTimingListE
   fun:_ZN4dyld24initializeMainExecutableEv
}
{
   <insert_a_suppression_name_here>
   Memcheck:Leak
   fun:malloc_zone_calloc
   fun:NXHashInsert
   fun:_NXHashRehashToCapacity
   fun:NXHashInsert
   fun:_ZL12realizeClassP7class_t
   fun:_ZL12realizeClassP7class_t
   fun:_read_images
   fun:map_images_nolock
   fun:map_images
   fun:_ZN4dyldL18notifyBatchPartialE17dyld_image_statesbPFPKcS0_jPK15dyld_image_infoE
   fun:_ZN4dyld36registerImageStateBatchChangeHandlerE17dyld_image_statesPFPKcS0_jPK15dyld_image_infoE
   fun:dyld_register_image_state_change_handler
}
{
   <insert_a_suppression_name_here>
   Memcheck:Leak
   fun:malloc_zone_calloc
   fun:NXHashInsert
   fun:_NXHashRehashToCapacity
   fun:NXHashInsert
   fun:_ZL12realizeClassP7class_t
   fun:_read_images
   fun:map_images_nolock
   fun:map_images
   fun:_ZN4dyldL18notifyBatchPartialE17dyld_image_statesbPFPKcS0_jPK15dyld_image_infoE
   fun:_ZN4dyld36registerImageStateBatchChangeHandlerE17dyld_image_statesPFPKcS0_jPK15dyld_image_infoE
   fun:dyld_register_image_state_change_handler
   fun:_objc_init
}
{
   <insert_a_suppression_name_here>
   Memcheck:Leak
   fun:calloc
   fun:class_createInstance
   fun:_os_object_alloc
   fun:_xpc_base_create
   fun:xpc_dictionary_create
   fun:_libxpc_initializer
   fun:libSystem_initializer
   fun:_ZN16ImageLoaderMachO18doModInitFunctionsERKN11ImageLoader11LinkContextE
   fun:_ZN16ImageLoaderMachO16doInitializationERKN11ImageLoader11LinkContextE
   fun:_ZN11ImageLoader23recursiveInitializationERKNS_11LinkContextEjRNS_21InitializerTimingListE
   fun:_ZN11ImageLoader23recursiveInitializationERKNS_11LinkContextEjRNS_21InitializerTimingListE
   fun:_ZN11ImageLoader15runInitializersERKNS_11LinkContextERNS_21InitializerTimingListE
}
{
   <insert_a_suppression_name_here>
   Memcheck:Leak
   fun:malloc_zone_malloc
   fun:_memdup_internal
   fun:_ZL15fixupMethodListP13method_list_tbb
   fun:_ZL17attachMethodListsP7class_tPP13method_list_tiaaPa
   fun:_ZL12realizeClassP7class_t
   fun:_read_images
   fun:map_images_nolock
   fun:map_images
   fun:_ZN4dyldL18notifyBatchPartialE17dyld_image_statesbPFPKcS0_jPK15dyld_image_infoE
   fun:_ZN4dyld36registerImageStateBatchChangeHandlerE17dyld_image_statesPFPKcS0_jPK15dyld_image_infoE
   fun:dyld_register_image_state_change_handler
   fun:_objc_init
}
{
   <insert_a_suppression_name_here>
   Memcheck:Leak
   fun:malloc_zone_malloc
   fun:_memdup_internal
   fun:_ZL15fixupMethodListP13method_list_tbb
   fun:_ZL17attachMethodListsP7class_tPP13method_list_tiaaPa
   fun:_ZL12realizeClassP7class_t
   fun:_ZL12realizeClassP7class_t
   fun:_read_images
   fun:map_images_nolock
   fun:map_images
   fun:_ZN4dyldL18notifyBatchPartialE17dyld_image_statesbPFPKcS0_jPK15dyld_image_infoE
   fun:_ZN4dyld36registerImageStateBatchChangeHandlerE17dyld_image_statesPFPKcS0_jPK15dyld_image_infoE
   fun:dyld_register_image_state_change_handler
}
{
   <insert_a_suppression_name_here>
   Memcheck:Leak
   fun:malloc
   fun:_ZL29getPerThreadBufferFor_dlerrorj
   fun:dlopen
   fun:dlopen
   fun:map_images_nolock
   fun:map_images
   fun:_ZN4dyldL18notifyBatchPartialE17dyld_image_statesbPFPKcS0_jPK15dyld_image_infoE
   fun:_ZN4dyld36registerImageStateBatchChangeHandlerE17dyld_image_statesPFPKcS0_jPK15dyld_image_infoE
   fun:dyld_register_image_state_change_handler
   fun:_objc_init
   fun:libSystem_initializer
   fun:_ZN16ImageLoaderMachO18doModInitFunctionsERKN11ImageLoader11LinkContextE
}
{
   <insert_a_suppression_name_here>
   Memcheck:Leak
   fun:calloc
   fun:class_createInstance
   fun:_os_object_alloc
   fun:_xpc_base_create
   fun:xpc_string_create
   fun:xpc_dictionary_set_string
   fun:_libxpc_initializer
   fun:libSystem_initializer
   fun:_ZN16ImageLoaderMachO18doModInitFunctionsERKN11ImageLoader11LinkContextE
   fun:_ZN16ImageLoaderMachO16doInitializationERKN11ImageLoader11LinkContextE
   fun:_ZN11ImageLoader23recursiveInitializationERKNS_11LinkContextEjRNS_21InitializerTimingListE
   fun:_ZN11ImageLoader23recursiveInitializationERKNS_11LinkContextEjRNS_21InitializerTimingListE
}
{
   <insert_a_suppression_name_here>
   Memcheck:Leak
   fun:malloc_zone_malloc
   fun:NXCreateMapTableFromZone
   fun:_ZL20unattachedCategoriesv
   fun:_ZL12realizeClassP7class_t
   fun:_ZL12realizeClassP7class_t
   fun:_ZL12realizeClassP7class_t
   fun:_ZL12realizeClassP7class_t
   fun:_ZL12realizeClassP7class_t
   fun:_read_images
   fun:map_images_nolock
   fun:map_images
   fun:_ZN4dyldL18notifyBatchPartialE17dyld_image_statesbPFPKcS0_jPK15dyld_image_infoE
}
{
   <insert_a_suppression_name_here>
   Memcheck:Leak
   fun:malloc_zone_malloc
   fun:_ZL17buildProtocolListP13category_listPK15protocol_list_tPS3_
   fun:_ZL12realizeClassP7class_t
   fun:_ZL12realizeClassP7class_t
   fun:_read_images
   fun:map_images_nolock
   fun:map_images
   fun:_ZN4dyldL18notifyBatchPartialE17dyld_image_statesbPFPKcS0_jPK15dyld_image_infoE
   fun:_ZN4dyld36registerImageStateBatchChangeHandlerE17dyld_image_statesPFPKcS0_jPK15dyld_image_infoE
   fun:dyld_register_image_state_change_handler
   fun:_objc_init
   fun:libSystem_initializer
}
{
   <insert_a_suppression_name_here>
   Memcheck:Leak
   fun:malloc_zone_malloc
   fun:_ZL17buildProtocolListP13category_listPK15protocol_list_tPS3_
   fun:_ZL12realizeClassP7class_t
   fun:_read_images
   fun:map_images_nolock
   fun:map_images
   fun:_ZN4dyldL18notifyBatchPartialE17dyld_image_statesbPFPKcS0_jPK15dyld_image_infoE
   fun:_ZN4dyld36registerImageStateBatchChangeHandlerE17dyld_image_statesPFPKcS0_jPK15dyld_image_infoE
   fun:dyld_register_image_state_change_handler
   fun:_objc_init
   fun:libSystem_initializer
   fun:_ZN16ImageLoaderMachO18doModInitFunctionsERKN11ImageLoader11LinkContextE
}
{
   <insert_a_suppression_name_here>
   Memcheck:Leak
   fun:malloc_zone_malloc
   fun:_strdup_internal
   fun:NXMapKeyCopyingInsert
   fun:_read_images
   fun:map_images_nolock
   fun:map_images
   fun:_ZN4dyldL18notifyBatchPartialE17dyld_image_statesbPFPKcS0_jPK15dyld_image_infoE
   fun:_ZN4dyld36registerImageStateBatchChangeHandlerE17dyld_image_statesPFPKcS0_jPK15dyld_image_infoE
   fun:dyld_register_image_state_change_handler
   fun:_objc_init
   fun:libSystem_initializer
   fun:_ZN16ImageLoaderMachO18doModInitFunctionsERKN11ImageLoader11LinkContextE
}
{
   <insert_a_suppression_name_here>
   Memcheck:Leak
   fun:malloc
   fun:strdup
   fun:xpc_string_create
   fun:xpc_dictionary_set_string
   fun:_libxpc_initializer
   fun:libSystem_initializer
   fun:_ZN16ImageLoaderMachO18doModInitFunctionsERKN11ImageLoader11LinkContextE
   fun:_ZN16ImageLoaderMachO16doInitializationERKN11ImageLoader11LinkContextE
   fun:_ZN11ImageLoader23recursiveInitializationERKNS_11LinkContextEjRNS_21InitializerTimingListE
   fun:_ZN11ImageLoader23recursiveInitializationERKNS_11LinkContextEjRNS_21InitializerTimingListE
   fun:_ZN11ImageLoader15runInitializersERKNS_11LinkContextERNS_21InitializerTimingListE
   fun:_ZN4dyld24initializeMainExecutableEv
}
{
   <insert_a_suppression_name_here>
   Memcheck:Leak
   fun:malloc_zone_malloc
   fun:_memdup_internal
   fun:_ZL15fixupMethodListP13method_list_tbb
   fun:_ZL17attachMethodListsP7class_tPP13method_list_tiaaPa
   fun:_ZL12realizeClassP7class_t
   fun:_ZL12realizeClassP7class_t
   fun:_ZL12realizeClassP7class_t
   fun:_ZL12realizeClassP7class_t
   fun:_read_images
   fun:map_images_nolock
   fun:map_images
   fun:_ZN4dyldL18notifyBatchPartialE17dyld_image_statesbPFPKcS0_jPK15dyld_image_infoE
}
{
   <insert_a_suppression_name_here>
   Memcheck:Leak
   fun:malloc_zone_calloc
   fun:_NXHashRehashToCapacity
   fun:NXHashInsert
   fun:_ZL12realizeClassP7class_t
   fun:_ZL12realizeClassP7class_t
   fun:_read_images
   fun:map_images_nolock
   fun:map_images
   fun:_ZN4dyldL18notifyBatchPartialE17dyld_image_statesbPFPKcS0_jPK15dyld_image_infoE
   fun:_ZN4dyld36registerImageStateBatchChangeHandlerE17dyld_image_statesPFPKcS0_jPK15dyld_image_infoE
   fun:dyld_register_image_state_change_handler
   fun:_objc_init
}
{
   <insert_a_suppression_name_here>
   Memcheck:Leak
   fun:malloc_zone_calloc
   fun:_NXHashRehashToCapacity
   fun:NXHashInsert
   fun:_ZL12realizeClassP7class_t
   fun:_read_images
   fun:map_images_nolock
   fun:map_images
   fun:_ZN4dyldL18notifyBatchPartialE17dyld_image_statesbPFPKcS0_jPK15dyld_image_infoE
   fun:_ZN4dyld36registerImageStateBatchChangeHandlerE17dyld_image_statesPFPKcS0_jPK15dyld_image_infoE
   fun:dyld_register_image_state_change_handler
   fun:_objc_init
   fun:libSystem_initializer
}
{
   <insert_a_suppression_name_here>
   Memcheck:Leak
   fun:malloc_zone_malloc
   fun:NXCreateMapTableFromZone
   fun:_ZL18futureNamedClassesv
   fun:_read_images
   fun:map_images_nolock
   fun:map_images
   fun:_ZN4dyldL18notifyBatchPartialE17dyld_image_statesbPFPKcS0_jPK15dyld_image_infoE
   fun:_ZN4dyld36registerImageStateBatchChangeHandlerE17dyld_image_statesPFPKcS0_jPK15dyld_image_infoE
   fun:dyld_register_image_state_change_handler
   fun:_objc_init
   fun:libSystem_initializer
   fun:_ZN16ImageLoaderMachO18doModInitFunctionsERKN11ImageLoader11LinkContextE
}
{
   <insert_a_suppression_name_here>
   Memcheck:Leak
   fun:malloc_zone_malloc
   fun:NXCreateMapTableFromZone
   fun:_ZL15remappedClassesa
   fun:_ZL10remapClassP7class_t
   fun:_read_images
   fun:map_images_nolock
   fun:map_images
   fun:_ZN4dyldL18notifyBatchPartialE17dyld_image_statesbPFPKcS0_jPK15dyld_image_infoE
   fun:_ZN4dyld36registerImageStateBatchChangeHandlerE17dyld_image_statesPFPKcS0_jPK15dyld_image_infoE
   fun:dyld_register_image_state_change_handler
   fun:_objc_init
   fun:libSystem_initializer
}
{
   <insert_a_suppression_name_here>
   Memcheck:Leak
   fun:malloc_zone_malloc
   fun:_ZL12_NXMapRehashP11_NXMapTable
   fun:NXMapInsert
   fun:NXMapKeyCopyingInsert
   fun:_read_images
   fun:map_images_nolock
   fun:map_images
   fun:_ZN4dyldL18notifyBatchPartialE17dyld_image_statesbPFPKcS0_jPK15dyld_image_infoE
   fun:_ZN4dyld36registerImageStateBatchChangeHandlerE17dyld_image_statesPFPKcS0_jPK15dyld_image_infoE
   fun:dyld_register_image_state_change_handler
   fun:_objc_init
   fun:libSystem_initializer
}
{
   <insert_a_suppression_name_here>
   Memcheck:Leak
   fun:malloc_zone_malloc
   fun:NXCreateMapTableFromZone
   fun:_read_images
   fun:map_images_nolock
   fun:map_images
   fun:_ZN4dyldL18notifyBatchPartialE17dyld_image_statesbPFPKcS0_jPK15dyld_image_infoE
   fun:_ZN4dyld36registerImageStateBatchChangeHandlerE17dyld_image_statesPFPKcS0_jPK15dyld_image_infoE
   fun:dyld_register_image_state_change_handler
   fun:_objc_init
   fun:libSystem_initializer
   fun:_ZN16ImageLoaderMachO18doModInitFunctionsERKN11ImageLoader11LinkContextE
   fun:_ZN16ImageLoaderMachO16doInitializationERKN11ImageLoader11LinkContextE
}
{
   <insert_a_suppression_name_here>
   Memcheck:Leak
   fun:malloc_zone_malloc
   fun:NXCreateMapTableFromZone
   fun:_read_images
   fun:map_images_nolock
   fun:map_images
   fun:_ZN4dyldL18notifyBatchPartialE17dyld_image_statesbPFPKcS0_jPK15dyld_image_infoE
   fun:_ZN4dyld36registerImageStateBatchChangeHandlerE17dyld_image_statesPFPKcS0_jPK15dyld_image_infoE
   fun:dyld_register_image_state_change_handler
   fun:_objc_init
   fun:libSystem_initializer
   fun:_ZN16ImageLoaderMachO18doModInitFunctionsERKN11ImageLoader11LinkContextE
   fun:_ZN16ImageLoaderMachO16doInitializationERKN11ImageLoader11LinkContextE
}
{
   <insert_a_suppression_name_here>
   Memcheck:Leak
   fun:malloc_zone_malloc
   fun:_memdup_internal
   fun:_ZL15fixupMethodListP13method_list_tbb
   fun:_ZL17attachMethodListsP7class_tPP13method_list_tiaaPa
   fun:_ZL12realizeClassP7class_t
   fun:_ZL12realizeClassP7class_t
   fun:_ZL12realizeClassP7class_t
   fun:_ZL12realizeClassP7class_t
   fun:_ZL12realizeClassP7class_t
   fun:_read_images
   fun:map_images_nolock
   fun:map_images
}
{
   <insert_a_suppression_name_here>
   Memcheck:Leak
   fun:malloc_zone_malloc
   fun:_memdup_internal
   fun:_ZL15fixupMethodListP13method_list_tbb
   fun:_ZL17attachMethodListsP7class_tPP13method_list_tiaaPa
   fun:_ZL12realizeClassP7class_t
   fun:_ZL12realizeClassP7class_t
   fun:_read_images
   fun:map_images_nolock
   fun:map_images
   fun:_ZN4dyldL18notifyBatchPartialE17dyld_image_statesbPFPKcS0_jPK15dyld_image_infoE
   fun:_ZN4dyld36registerImageStateBatchChangeHandlerE17dyld_image_statesPFPKcS0_jPK15dyld_image_infoE
   fun:dyld_register_image_state_change_handler
}
{
   <insert_a_suppression_name_here>
   Memcheck:Leak
   fun:malloc_zone_calloc
   fun:_ZL12realizeClassP7class_t
   fun:_read_images
   fun:map_images_nolock
   fun:map_images
   fun:_ZN4dyldL18notifyBatchPartialE17dyld_image_statesbPFPKcS0_jPK15dyld_image_infoE
   fun:_ZN4dyld36registerImageStateBatchChangeHandlerE17dyld_image_statesPFPKcS0_jPK15dyld_image_infoE
   fun:dyld_register_image_state_change_handler
   fun:_objc_init
   fun:libSystem_initializer
   fun:_ZN16ImageLoaderMachO18doModInitFunctionsERKN11ImageLoader11LinkContextE
   fun:_ZN16ImageLoaderMachO16doInitializationERKN11ImageLoader11LinkContextE
}
{
   <insert_a_suppression_name_here>
   Memcheck:Leak
   fun:malloc_zone_calloc
   fun:_ZL12realizeClassP7class_t
   fun:_ZL12realizeClassP7class_t
   fun:_read_images
   fun:map_images_nolock
   fun:map_images
   fun:_ZN4dyldL18notifyBatchPartialE17dyld_image_statesbPFPKcS0_jPK15dyld_image_infoE
   fun:_ZN4dyld36registerImageStateBatchChangeHandlerE17dyld_image_statesPFPKcS0_jPK15dyld_image_infoE
   fun:dyld_register_image_state_change_handler
   fun:_objc_init
   fun:libSystem_initializer
   fun:_ZN16ImageLoaderMachO18doModInitFunctionsERKN11ImageLoader11LinkContextE
}
{
   <insert_a_suppression_name_here>
   Memcheck:Leak
   fun:malloc
   fun:__smakebuf
   fun:__swsetup
   fun:__sfvwrite
   fun:puts
   fun:main
}
{
   <insert_a_suppression_name_here>
   Memcheck:Leak
   fun:malloc_zone_malloc
   fun:_ZN4objc8DenseMapIP11objc_objectmLb1ENS_12DenseMapInfoIS2_EENS3_ImEEE4initEj
   fun:arr_init
   fun:map_images_nolock
   fun:map_images
   fun:_ZN4dyldL18notifyBatchPartialE17dyld_image_statesbPFPKcS0_jPK15dyld_image_infoE
   fun:_ZN4dyld36registerImageStateBatchChangeHandlerE17dyld_image_statesPFPKcS0_jPK15dyld_image_infoE
   fun:dyld_register_image_state_change_handler
   fun:_objc_init
   fun:libSystem_initializer
   fun:_ZN16ImageLoaderMachO18doModInitFunctionsERKN11ImageLoader11LinkContextE
   fun:_ZN16ImageLoaderMachO16doInitializationERKN11ImageLoader11LinkContextE
}
{
   <insert_a_suppression_name_here>
   Memcheck:Leak
   fun:malloc_zone_calloc
   fun:__objc_sel_set_create
   fun:__sel_registerName
   fun:sel_init
   fun:map_images_nolock
   fun:map_images
   fun:_ZN4dyldL18notifyBatchPartialE17dyld_image_statesbPFPKcS0_jPK15dyld_image_infoE
   fun:_ZN4dyld36registerImageStateBatchChangeHandlerE17dyld_image_statesPFPKcS0_jPK15dyld_image_infoE
   fun:dyld_register_image_state_change_handler
   fun:_objc_init
   fun:libSystem_initializer
   fun:_ZN16ImageLoaderMachO18doModInitFunctionsERKN11ImageLoader11LinkContextE
}
